target datalayout = "e-m:e-p270:32:32-p271:32:32-p272:64:64-i64:64-i128:128-f80:128-n8:16:32:64-S128"
target triple = "x86_64-pc-linux-gnu"

; Function Attrs: mustprogress nounwind uwtable
define hidden noundef zeroext i1 @_ZN4cvc58internal6theory7strings5utils12isStringKindENS0_4kind6Kind_tE(i32 noundef %0) #4 {
  %2 = alloca i32, align 4
  store i32 %0, ptr %2, align 4, !tbaa !30
  %3 = load i32, ptr %2, align 4, !tbaa !30
  %4 = icmp eq i32 %3, 334
  br i1 %4, label %26, label %5

5:                                                ; preds = %1
  %6 = load i32, ptr %2, align 4, !tbaa !30
  %7 = icmp eq i32 %6, 333
  br i1 %7, label %26, label %8

8:                                                ; preds = %5
  %9 = load i32, ptr %2, align 4, !tbaa !30
  %10 = icmp eq i32 %9, 338
  br i1 %10, label %26, label %11

11:                                               ; preds = %8
  %12 = load i32, ptr %2, align 4, !tbaa !30
  %13 = icmp eq i32 %12, 339
  br i1 %13, label %26, label %14

14:                                               ; preds = %11
  %15 = load i32, ptr %2, align 4, !tbaa !30
  %16 = icmp eq i32 %15, 323
  br i1 %16, label %26, label %17

17:                                               ; preds = %14
  %18 = load i32, ptr %2, align 4, !tbaa !30
  %19 = icmp eq i32 %18, 322
  br i1 %19, label %26, label %20

20:                                               ; preds = %17
  %21 = load i32, ptr %2, align 4, !tbaa !30
  %22 = icmp eq i32 %21, 336
  br i1 %22, label %26, label %23

23:                                               ; preds = %20
  %24 = load i32, ptr %2, align 4, !tbaa !30
  %25 = icmp eq i32 %24, 335
  br label %26

26:                                               ; preds = %23, %20, %17, %14, %11, %8, %5, %1
  %27 = phi i1 [ true, %20 ], [ true, %17 ], [ true, %14 ], [ true, %11 ], [ true, %8 ], [ true, %5 ], [ true, %1 ], [ %25, %23 ]
  ret i1 %27
}