; Function Attrs: mustprogress nofree norecurse nosync nounwind willreturn memory(none) uwtable
define hidden noundef zeroext i1 @_ZN4cvc58internal6theory7strings5utils12isStringKindENS0_4kind6Kind_tE(i32 noundef %0) local_unnamed_addr #3 {
switch.edge:
  %switch.tableidx = add i32 %0, -322
  %1 = icmp ult i32 %switch.tableidx, 18
  %switch.cast = trunc i32 %switch.tableidx to i18
  %switch.downshift = lshr i18 -34813, %switch.cast
  %switch.masked = trunc i18 %switch.downshift to i1
  %2 = select i1 %1, i1 %switch.masked, i1 false
  ret i1 %2
}